target datalayout = "e-m:e-p270:32:32-p271:32:32-p272:64:64-i64:64-i128:128-f80:128-n8:16:32:64-S128"
target triple = "x86_64-pc-linux-gnu"

%class.NumberlikeArray = type { i32, i32, ptr }

; Function Attrs: mustprogress uwtable
define linkonce_odr void @_ZN15NumberlikeArrayImE15allocateAndCopyEj(ptr noundef nonnull align 8 dereferenceable(16) %0, i32 noundef %1) #0 comdat align 2 {
  %3 = alloca ptr, align 8
  %4 = alloca i32, align 4
  %5 = alloca ptr, align 8
  %6 = alloca i32, align 4
  store ptr %0, ptr %3, align 8, !tbaa !13
  store i32 %1, ptr %4, align 4, !tbaa !21
  %7 = load ptr, ptr %3, align 8
  %8 = load i32, ptr %4, align 4, !tbaa !21
  %9 = getelementptr inbounds nuw %class.NumberlikeArray, ptr %7, i32 0, i32 0
  %10 = load i32, ptr %9, align 8, !tbaa !15
  %11 = icmp ugt i32 %8, %10
  br i1 %11, label %12, label %50

12:                                               ; preds = %2
  call void @llvm.lifetime.start.p0(i64 8, ptr %5) #7
  %13 = getelementptr inbounds nuw %class.NumberlikeArray, ptr %7, i32 0, i32 2
  %14 = load ptr, ptr %13, align 8, !tbaa !20
  store ptr %14, ptr %5, align 8, !tbaa !29
  %15 = load i32, ptr %4, align 4, !tbaa !21
  %16 = getelementptr inbounds nuw %class.NumberlikeArray, ptr %7, i32 0, i32 0
  store i32 %15, ptr %16, align 8, !tbaa !15
  %17 = getelementptr inbounds nuw %class.NumberlikeArray, ptr %7, i32 0, i32 0
  %18 = load i32, ptr %17, align 8, !tbaa !15
  %19 = zext i32 %18 to i64
  %20 = call { i64, i1 } @llvm.umul.with.overflow.i64(i64 %19, i64 8)
  %21 = extractvalue { i64, i1 } %20, 1
  %22 = extractvalue { i64, i1 } %20, 0
  %23 = select i1 %21, i64 -1, i64 %22
  %24 = call noalias noundef nonnull ptr @_Znam(i64 noundef %23) #8
  %25 = getelementptr inbounds nuw %class.NumberlikeArray, ptr %7, i32 0, i32 2
  store ptr %24, ptr %25, align 8, !tbaa !20
  call void @llvm.lifetime.start.p0(i64 4, ptr %6) #7
  store i32 0, ptr %6, align 4, !tbaa !21
  br label %26

26:                                               ; preds = %42, %12
  %27 = load i32, ptr %6, align 4, !tbaa !21
  %28 = getelementptr inbounds nuw %class.NumberlikeArray, ptr %7, i32 0, i32 1
  %29 = load i32, ptr %28, align 4, !tbaa !19
  %30 = icmp ult i32 %27, %29
  br i1 %30, label %31, label %45

31:                                               ; preds = %26
  %32 = load ptr, ptr %5, align 8, !tbaa !29
  %33 = load i32, ptr %6, align 4, !tbaa !21
  %34 = zext i32 %33 to i64
  %35 = getelementptr inbounds nuw i64, ptr %32, i64 %34
  %36 = load i64, ptr %35, align 8, !tbaa !11
  %37 = getelementptr inbounds nuw %class.NumberlikeArray, ptr %7, i32 0, i32 2
  %38 = load ptr, ptr %37, align 8, !tbaa !20
  %39 = load i32, ptr %6, align 4, !tbaa !21
  %40 = zext i32 %39 to i64
  %41 = getelementptr inbounds nuw i64, ptr %38, i64 %40
  store i64 %36, ptr %41, align 8, !tbaa !11
  br label %42

42:                                               ; preds = %31
  %43 = load i32, ptr %6, align 4, !tbaa !21
  %44 = add i32 %43, 1
  store i32 %44, ptr %6, align 4, !tbaa !21
  br label %26, !llvm.loop !30

45:                                               ; preds = %26
  %46 = load ptr, ptr %5, align 8, !tbaa !29
  %47 = icmp eq ptr %46, null
  br i1 %47, label %49, label %48

48:                                               ; preds = %45
  call void @_ZdaPv(ptr noundef %46) #10
  br label %49

49:                                               ; preds = %48, %45
  call void @llvm.lifetime.end.p0(i64 4, ptr %6) #7
  call void @llvm.lifetime.end.p0(i64 8, ptr %5) #7
  br label %50

50:                                               ; preds = %49, %2
  ret void
}

; Function Attrs: mustprogress uwtable
define void @_ZN11BigUnsignedppEv(ptr noundef nonnull align 8 dereferenceable(16) %0) #0 align 2 {
  %2 = alloca ptr, align 8
  %3 = alloca i32, align 4
  %4 = alloca i8, align 1
  store ptr %0, ptr %2, align 8, !tbaa !6
  %5 = load ptr, ptr %2, align 8
  call void @llvm.lifetime.start.p0(i64 4, ptr %3) #7
  call void @llvm.lifetime.start.p0(i64 1, ptr %4) #7
  store i8 1, ptr %4, align 1, !tbaa !32
  store i32 0, ptr %3, align 4, !tbaa !21
  br label %6

6:                                                ; preds = %32, %1
  %7 = load i32, ptr %3, align 4, !tbaa !21
  %8 = getelementptr inbounds nuw %class.NumberlikeArray, ptr %5, i32 0, i32 1
  %9 = load i32, ptr %8, align 4, !tbaa !19
  %10 = icmp ult i32 %7, %9
  br i1 %10, label %11, label %14

11:                                               ; preds = %6
  %12 = load i8, ptr %4, align 1, !tbaa !32, !range !34, !noundef !35
  %13 = trunc i8 %12 to i1
  br label %14

14:                                               ; preds = %11, %6
  %15 = phi i1 [ false, %6 ], [ %13, %11 ]
  br i1 %15, label %16, label %35

16:                                               ; preds = %14
  %17 = getelementptr inbounds nuw %class.NumberlikeArray, ptr %5, i32 0, i32 2
  %18 = load ptr, ptr %17, align 8, !tbaa !20
  %19 = load i32, ptr %3, align 4, !tbaa !21
  %20 = zext i32 %19 to i64
  %21 = getelementptr inbounds nuw i64, ptr %18, i64 %20
  %22 = load i64, ptr %21, align 8, !tbaa !11
  %23 = add i64 %22, 1
  store i64 %23, ptr %21, align 8, !tbaa !11
  %24 = getelementptr inbounds nuw %class.NumberlikeArray, ptr %5, i32 0, i32 2
  %25 = load ptr, ptr %24, align 8, !tbaa !20
  %26 = load i32, ptr %3, align 4, !tbaa !21
  %27 = zext i32 %26 to i64
  %28 = getelementptr inbounds nuw i64, ptr %25, i64 %27
  %29 = load i64, ptr %28, align 8, !tbaa !11
  %30 = icmp eq i64 %29, 0
  %31 = zext i1 %30 to i8
  store i8 %31, ptr %4, align 1, !tbaa !32
  br label %32

32:                                               ; preds = %16
  %33 = load i32, ptr %3, align 4, !tbaa !21
  %34 = add i32 %33, 1
  store i32 %34, ptr %3, align 4, !tbaa !21
  br label %6, !llvm.loop !62

35:                                               ; preds = %14
  %36 = load i8, ptr %4, align 1, !tbaa !32, !range !34, !noundef !35
  %37 = trunc i8 %36 to i1
  br i1 %37, label %38, label %50

38:                                               ; preds = %35
  %39 = getelementptr inbounds nuw %class.NumberlikeArray, ptr %5, i32 0, i32 1
  %40 = load i32, ptr %39, align 4, !tbaa !19
  %41 = add i32 %40, 1
  call void @_ZN15NumberlikeArrayImE15allocateAndCopyEj(ptr noundef nonnull align 8 dereferenceable(16) %5, i32 noundef %41)
  %42 = getelementptr inbounds nuw %class.NumberlikeArray, ptr %5, i32 0, i32 1
  %43 = load i32, ptr %42, align 4, !tbaa !19
  %44 = add i32 %43, 1
  store i32 %44, ptr %42, align 4, !tbaa !19
  %45 = getelementptr inbounds nuw %class.NumberlikeArray, ptr %5, i32 0, i32 2
  %46 = load ptr, ptr %45, align 8, !tbaa !20
  %47 = load i32, ptr %3, align 4, !tbaa !21
  %48 = zext i32 %47 to i64
  %49 = getelementptr inbounds nuw i64, ptr %46, i64 %48
  store i64 1, ptr %49, align 8, !tbaa !11
  br label %50

50:                                               ; preds = %38, %35
  call void @llvm.lifetime.end.p0(i64 1, ptr %4) #7
  call void @llvm.lifetime.end.p0(i64 4, ptr %3) #7
  ret void
}

; Function Attrs: mustprogress uwtable
define void @_ZN11BigUnsignedppEi(ptr noundef nonnull align 8 dereferenceable(16) %0, i32 noundef %1) #0 align 2 {
  %3 = alloca ptr, align 8
  %4 = alloca i32, align 4
  store ptr %0, ptr %3, align 8, !tbaa !6
  store i32 %1, ptr %4, align 4, !tbaa !21
  %5 = load ptr, ptr %3, align 8
  call void @_ZN11BigUnsignedppEv(ptr noundef nonnull align 8 dereferenceable(16) %5)
  ret void
}