; Function Attrs: mustprogress uwtable
define void @_ZN11BigUnsignedppEi(ptr noundef nonnull align 8 captures(none) dereferenceable(16) %0, i32 noundef %1) local_unnamed_addr #0 align 2 {
  %3 = getelementptr inbounds nuw i8, ptr %0, i64 4
  %4 = load i32, ptr %3, align 4, !tbaa !14
  %.not.i = icmp eq i32 %4, 0
  br i1 %.not.i, label %._crit_edge.thread.i, label %.lr.ph.i

.lr.ph.i:                                         ; preds = %2
  %5 = getelementptr inbounds nuw i8, ptr %0, i64 8
  %6 = load ptr, ptr %5, align 8, !tbaa !13
  %7 = zext i32 %4 to i64
  br label %8

8:                                                ; preds = %8, %.lr.ph.i
  %indvars.iv.i = phi i64 [ 0, %.lr.ph.i ], [ %indvars.iv.next.i, %8 ]
  %9 = getelementptr inbounds nuw i64, ptr %6, i64 %indvars.iv.i
  %10 = load i64, ptr %9, align 8, !tbaa !15
  %11 = add i64 %10, 1
  store i64 %11, ptr %9, align 8, !tbaa !15
  %12 = icmp eq i64 %11, 0
  %indvars.iv.next.i = add nuw nsw i64 %indvars.iv.i, 1
  %13 = icmp samesign ult i64 %indvars.iv.next.i, %7
  %14 = select i1 %13, i1 %12, i1 false
  br i1 %14, label %8, label %._crit_edge.i, !llvm.loop !47

._crit_edge.i:                                    ; preds = %8
  br i1 %12, label %._crit_edge.thread.i, label %_ZN11BigUnsignedppEv.exit

._crit_edge.thread.i:                             ; preds = %._crit_edge.i, %2
  %.07.lcssa16.i = phi i64 [ %indvars.iv.next.i, %._crit_edge.i ], [ 0, %2 ]
  %15 = add i32 %4, 1
  %16 = load i32, ptr %0, align 8, !tbaa !6
  %17 = icmp ugt i32 %15, %16
  br i1 %17, label %18, label %_ZN15NumberlikeArrayImE15allocateAndCopyEj.exit.i

18:                                               ; preds = %._crit_edge.thread.i
  %19 = getelementptr inbounds nuw i8, ptr %0, i64 8
  %20 = load ptr, ptr %19, align 8, !tbaa !13
  store i32 %15, ptr %0, align 8, !tbaa !6
  %21 = zext i32 %15 to i64
  %22 = shl nuw nsw i64 %21, 3
  %23 = tail call noalias noundef nonnull ptr @_Znam(i64 noundef %22) #8
  store ptr %23, ptr %19, align 8, !tbaa !13
  br i1 %.not.i, label %._crit_edge.i.i, label %.lr.ph.preheader.i.i

.lr.ph.preheader.i.i:                             ; preds = %18
  %wide.trip.count.i.i = zext i32 %4 to i64
  br label %.lr.ph.i.i

.lr.ph.i.i:                                       ; preds = %.lr.ph.i.i, %.lr.ph.preheader.i.i
  %indvars.iv.i.i = phi i64 [ 0, %.lr.ph.preheader.i.i ], [ %indvars.iv.next.i.i, %.lr.ph.i.i ]
  %24 = getelementptr inbounds nuw i64, ptr %20, i64 %indvars.iv.i.i
  %25 = load i64, ptr %24, align 8, !tbaa !15
  %26 = getelementptr inbounds nuw i64, ptr %23, i64 %indvars.iv.i.i
  store i64 %25, ptr %26, align 8, !tbaa !15
  %indvars.iv.next.i.i = add nuw nsw i64 %indvars.iv.i.i, 1
  %exitcond.not.i.i = icmp eq i64 %indvars.iv.next.i.i, %wide.trip.count.i.i
  br i1 %exitcond.not.i.i, label %._crit_edge.thread.i.i, label %.lr.ph.i.i, !llvm.loop !21

._crit_edge.i.i:                                  ; preds = %18
  %27 = icmp eq ptr %20, null
  br i1 %27, label %_ZN15NumberlikeArrayImE15allocateAndCopyEj.exit.i, label %._crit_edge.thread.i.i

._crit_edge.thread.i.i:                           ; preds = %.lr.ph.i.i, %._crit_edge.i.i
  tail call void @_ZdaPv(ptr noundef nonnull %20) #11
  %.pre.i = load i32, ptr %3, align 4, !tbaa !14
  br label %_ZN15NumberlikeArrayImE15allocateAndCopyEj.exit.i

_ZN15NumberlikeArrayImE15allocateAndCopyEj.exit.i: ; preds = %._crit_edge.thread.i.i, %._crit_edge.i.i, %._crit_edge.thread.i
  %28 = phi i32 [ %4, %._crit_edge.thread.i ], [ 0, %._crit_edge.i.i ], [ %.pre.i, %._crit_edge.thread.i.i ]
  %29 = add i32 %28, 1
  store i32 %29, ptr %3, align 4, !tbaa !14
  %30 = getelementptr inbounds nuw i8, ptr %0, i64 8
  %31 = load ptr, ptr %30, align 8, !tbaa !13
  %32 = getelementptr inbounds nuw i64, ptr %31, i64 %.07.lcssa16.i
  store i64 1, ptr %32, align 8, !tbaa !15
  br label %_ZN11BigUnsignedppEv.exit

_ZN11BigUnsignedppEv.exit:                        ; preds = %._crit_edge.i, %_ZN15NumberlikeArrayImE15allocateAndCopyEj.exit.i
  ret void
}